target datalayout = "e-m:e-p270:32:32-p271:32:32-p272:64:64-i64:64-i128:128-f80:128-n8:16:32:64-S128"
target triple = "x86_64-pc-linux-gnu"

%struct._object = type { %union.anon, ptr }
%union.anon = type { i64 }
%struct.sockaddr_in = type { i16, i16, %struct.in_addr, [8 x i8] }
%struct.in_addr = type { i32 }
%struct.PyModuleObject = type { %struct._object, ptr, ptr, ptr, ptr, ptr }

@.str.30 = private unnamed_addr constant [17 x i8] c"et:gethostbyname\00", align 1
@.str.31 = private unnamed_addr constant [5 x i8] c"idna\00", align 1
@.str.32 = private unnamed_addr constant [21 x i8] c"socket.gethostbyname\00", align 1
@.str.33 = private unnamed_addr constant [2 x i8] c"O\00", align 1
@PyExc_OSError = external global ptr, align 8

; Function Attrs: inlinehint nounwind uwtable
define internal ptr @_PyModule_GetState(ptr noundef %0) #3 {
  %2 = alloca ptr, align 8
  store ptr %0, ptr %2, align 8, !tbaa !3
  %3 = load ptr, ptr %2, align 8, !tbaa !3
  %4 = getelementptr inbounds nuw %struct.PyModuleObject, ptr %3, i32 0, i32 3
  %5 = load ptr, ptr %4, align 8, !tbaa !95
  ret ptr %5
}

; Function Attrs: nounwind uwtable
define internal ptr @make_ipv4_addr(ptr noundef %0) #0 {
  %2 = alloca ptr, align 8
  %3 = alloca ptr, align 8
  %4 = alloca [16 x i8], align 16
  %5 = alloca i32, align 4
  store ptr %0, ptr %3, align 8, !tbaa !88
  call void @llvm.lifetime.start.p0(i64 16, ptr %4) #10
  %6 = load ptr, ptr %3, align 8, !tbaa !88
  %7 = getelementptr inbounds nuw %struct.sockaddr_in, ptr %6, i32 0, i32 2
  %8 = getelementptr inbounds [16 x i8], ptr %4, i64 0, i64 0
  %9 = call ptr @inet_ntop(i32 noundef 2, ptr noundef %7, ptr noundef %8, i32 noundef 16) #10
  %10 = icmp eq ptr %9, null
  br i1 %10, label %11, label %14

11:                                               ; preds = %1
  %12 = load ptr, ptr @PyExc_OSError, align 8, !tbaa !3
  %13 = call ptr @PyErr_SetFromErrno(ptr noundef %12)
  store ptr null, ptr %2, align 8
  store i32 1, ptr %5, align 4
  br label %17

14:                                               ; preds = %1
  %15 = getelementptr inbounds [16 x i8], ptr %4, i64 0, i64 0
  %16 = call ptr @PyUnicode_FromString(ptr noundef %15)
  store ptr %16, ptr %2, align 8
  store i32 1, ptr %5, align 4
  br label %17

17:                                               ; preds = %14, %11
  call void @llvm.lifetime.end.p0(i64 16, ptr %4) #10
  %18 = load ptr, ptr %2, align 8
  ret ptr %18
}

; Function Attrs: inlinehint nounwind uwtable
define internal ptr @get_module_state(ptr noundef %0) #3 {
  %2 = alloca ptr, align 8
  %3 = alloca ptr, align 8
  store ptr %0, ptr %2, align 8, !tbaa !3
  call void @llvm.lifetime.start.p0(i64 8, ptr %3) #10
  %4 = load ptr, ptr %2, align 8, !tbaa !3
  %5 = call ptr @_PyModule_GetState(ptr noundef %4)
  store ptr %5, ptr %3, align 8, !tbaa !8
  %6 = load ptr, ptr %3, align 8, !tbaa !8
  call void @llvm.lifetime.end.p0(i64 8, ptr %3) #10
  ret ptr %6
}

; Function Attrs: nounwind uwtable
define internal ptr @socket_gethostbyname(ptr noundef %0, ptr noundef %1) #0 {
  %3 = alloca ptr, align 8
  %4 = alloca ptr, align 8
  %5 = alloca ptr, align 8
  %6 = alloca ptr, align 8
  %7 = alloca %struct.sockaddr_in, align 4
  %8 = alloca ptr, align 8
  %9 = alloca i32, align 4
  %10 = alloca ptr, align 8
  %11 = alloca i32, align 4
  store ptr %0, ptr %4, align 8, !tbaa !3
  store ptr %1, ptr %5, align 8, !tbaa !3
  call void @llvm.lifetime.start.p0(i64 8, ptr %6) #10
  call void @llvm.lifetime.start.p0(i64 16, ptr %7) #10
  call void @llvm.lifetime.start.p0(i64 8, ptr %8) #10
  store ptr null, ptr %8, align 8, !tbaa !3
  %12 = load ptr, ptr %5, align 8, !tbaa !3
  %13 = call i32 (ptr, ptr, ...) @PyArg_ParseTuple(ptr noundef %12, ptr noundef @.str.30, ptr noundef @.str.31, ptr noundef %6)
  %14 = icmp ne i32 %13, 0
  br i1 %14, label %16, label %15

15:                                               ; preds = %2
  store ptr null, ptr %3, align 8
  store i32 1, ptr %9, align 4
  br label %35

16:                                               ; preds = %2
  %17 = load ptr, ptr %5, align 8, !tbaa !3
  %18 = call i32 (ptr, ptr, ...) @PySys_Audit(ptr noundef @.str.32, ptr noundef @.str.33, ptr noundef %17)
  %19 = icmp slt i32 %18, 0
  br i1 %19, label %20, label %21

20:                                               ; preds = %16
  br label %32

21:                                               ; preds = %16
  %22 = load ptr, ptr %4, align 8, !tbaa !3
  %23 = call ptr @get_module_state(ptr noundef %22)
  store ptr %23, ptr %10, align 8, !tbaa !9
  %24 = load ptr, ptr %10, align 8, !tbaa !9
  %25 = load ptr, ptr %6, align 8, !tbaa !24
  %26 = call i32 @setipaddr(ptr noundef %24, ptr noundef %25, ptr noundef %7, i64 noundef 16, i32 noundef 2)
  store i32 %26, ptr %11, align 4, !tbaa !15
  %27 = load i32, ptr %11, align 4, !tbaa !15
  %28 = icmp slt i32 %27, 0
  br i1 %28, label %29, label %30

29:                                               ; preds = %21
  br label %32

30:                                               ; preds = %21
  %31 = call ptr @make_ipv4_addr(ptr noundef %7)
  store ptr %31, ptr %8, align 8, !tbaa !3
  br label %32

32:                                               ; preds = %30, %29, %20
  %33 = load ptr, ptr %6, align 8, !tbaa !24
  call void @PyMem_Free(ptr noundef %33)
  %34 = load ptr, ptr %8, align 8, !tbaa !3
  store ptr %34, ptr %3, align 8
  store i32 1, ptr %9, align 4
  br label %35

35:                                               ; preds = %32, %15
  call void @llvm.lifetime.end.p0(i64 8, ptr %8) #10
  call void @llvm.lifetime.end.p0(i64 16, ptr %7) #10
  call void @llvm.lifetime.end.p0(i64 8, ptr %6) #10
  %36 = load ptr, ptr %3, align 8
  ret ptr %36
}