; Function Attrs: nounwind uwtable
define internal ptr @socket_gethostbyname(ptr noundef readonly captures(none) %0, ptr noundef %1) #0 {
  %3 = alloca [16 x i8], align 16
  %4 = alloca ptr, align 8
  %5 = alloca %struct.sockaddr_in, align 4
  call void @llvm.lifetime.start.p0(i64 8, ptr nonnull %4) #13
  call void @llvm.lifetime.start.p0(i64 16, ptr nonnull %5) #13
  %6 = call i32 (ptr, ptr, ...) @PyArg_ParseTuple(ptr noundef %1, ptr noundef nonnull @.str.30, ptr noundef nonnull @.str.31, ptr noundef nonnull %4) #13
  %.not = icmp eq i32 %6, 0
  br i1 %.not, label %26, label %7

7:                                                ; preds = %2
  %8 = call i32 (ptr, ptr, ...) @PySys_Audit(ptr noundef nonnull @.str.32, ptr noundef nonnull @.str.33, ptr noundef %1) #13
  %9 = icmp slt i32 %8, 0
  br i1 %9, label %24, label %10

10:                                               ; preds = %7
  %11 = getelementptr i8, ptr %0, i64 32
  %.val = load ptr, ptr %11, align 8, !tbaa !3
  %12 = load ptr, ptr %4, align 8, !tbaa !20
  %13 = call fastcc i32 @setipaddr(ptr noundef %.val, ptr noundef %12, ptr noundef %5, i64 noundef 16, i32 noundef 2)
  %14 = icmp slt i32 %13, 0
  br i1 %14, label %24, label %15

15:                                               ; preds = %10
  call void @llvm.lifetime.start.p0(i64 16, ptr nonnull %3) #13
  %16 = getelementptr inbounds nuw i8, ptr %5, i64 4
  %17 = call ptr @inet_ntop(i32 noundef 2, ptr noundef nonnull %16, ptr noundef nonnull %3, i32 noundef 16) #13
  %18 = icmp eq ptr %17, null
  br i1 %18, label %19, label %22

19:                                               ; preds = %15
  %20 = load ptr, ptr @PyExc_OSError, align 8, !tbaa !19
  %21 = call ptr @PyErr_SetFromErrno(ptr noundef %20) #13
  br label %make_ipv4_addr.exit

22:                                               ; preds = %15
  %23 = call ptr @PyUnicode_FromString(ptr noundef nonnull %3) #13
  br label %make_ipv4_addr.exit

make_ipv4_addr.exit:                              ; preds = %19, %22
  %.0.i = phi ptr [ null, %19 ], [ %23, %22 ]
  call void @llvm.lifetime.end.p0(i64 16, ptr nonnull %3) #13
  br label %24

24:                                               ; preds = %10, %7, %make_ipv4_addr.exit
  %.06 = phi ptr [ null, %7 ], [ null, %10 ], [ %.0.i, %make_ipv4_addr.exit ]
  %25 = load ptr, ptr %4, align 8, !tbaa !20
  call void @PyMem_Free(ptr noundef %25) #13
  br label %26

26:                                               ; preds = %2, %24
  %.0 = phi ptr [ %.06, %24 ], [ null, %2 ]
  call void @llvm.lifetime.end.p0(i64 16, ptr nonnull %5) #13
  call void @llvm.lifetime.end.p0(i64 8, ptr nonnull %4) #13
  ret ptr %.0
}